target datalayout = "e-m:e-p270:32:32-p271:32:32-p272:64:64-i64:64-i128:128-f80:128-n8:16:32:64-S128"
target triple = "x86_64-pc-linux-gnu"

; Function Attrs: mustprogress nounwind uwtable
define i64 @modp_b64_encode(ptr noundef %0, ptr noundef %1, i64 noundef %2) #0 {
  %4 = alloca ptr, align 8
  %5 = alloca ptr, align 8
  %6 = alloca i64, align 8
  %7 = alloca i64, align 8
  %8 = alloca ptr, align 8
  %9 = alloca i8, align 1
  %10 = alloca i8, align 1
  %11 = alloca i8, align 1
  store ptr %0, ptr %4, align 8, !tbaa !3
  store ptr %1, ptr %5, align 8, !tbaa !3
  store i64 %2, ptr %6, align 8, !tbaa !8
  call void @llvm.lifetime.start.p0(i64 8, ptr %7) #2
  store i64 0, ptr %7, align 8, !tbaa !8
  call void @llvm.lifetime.start.p0(i64 8, ptr %8) #2
  %12 = load ptr, ptr %4, align 8, !tbaa !3
  store ptr %12, ptr %8, align 8, !tbaa !3
  call void @llvm.lifetime.start.p0(i64 1, ptr %9) #2
  call void @llvm.lifetime.start.p0(i64 1, ptr %10) #2
  call void @llvm.lifetime.start.p0(i64 1, ptr %11) #2
  %13 = load i64, ptr %6, align 8, !tbaa !8
  %14 = icmp ugt i64 %13, 2
  br i1 %14, label %15, label %80

15:                                               ; preds = %3
  br label %16

16:                                               ; preds = %76, %15
  %17 = load i64, ptr %7, align 8, !tbaa !8
  %18 = load i64, ptr %6, align 8, !tbaa !8
  %19 = sub i64 %18, 2
  %20 = icmp ult i64 %17, %19
  br i1 %20, label %21, label %79

21:                                               ; preds = %16
  %22 = load ptr, ptr %5, align 8, !tbaa !3
  %23 = load i64, ptr %7, align 8, !tbaa !8
  %24 = getelementptr inbounds nuw i8, ptr %22, i64 %23
  %25 = load i8, ptr %24, align 1, !tbaa !10
  store i8 %25, ptr %9, align 1, !tbaa !10
  %26 = load ptr, ptr %5, align 8, !tbaa !3
  %27 = load i64, ptr %7, align 8, !tbaa !8
  %28 = add i64 %27, 1
  %29 = getelementptr inbounds nuw i8, ptr %26, i64 %28
  %30 = load i8, ptr %29, align 1, !tbaa !10
  store i8 %30, ptr %10, align 1, !tbaa !10
  %31 = load ptr, ptr %5, align 8, !tbaa !3
  %32 = load i64, ptr %7, align 8, !tbaa !8
  %33 = add i64 %32, 2
  %34 = getelementptr inbounds nuw i8, ptr %31, i64 %33
  %35 = load i8, ptr %34, align 1, !tbaa !10
  store i8 %35, ptr %11, align 1, !tbaa !10
  %36 = load i8, ptr %9, align 1, !tbaa !10
  %37 = zext i8 %36 to i64
  %38 = getelementptr inbounds nuw [256 x i8], ptr @_ZL2e0, i64 0, i64 %37
  %39 = load i8, ptr %38, align 1, !tbaa !10
  %40 = load ptr, ptr %8, align 8, !tbaa !3
  %41 = getelementptr inbounds nuw i8, ptr %40, i32 1
  store ptr %41, ptr %8, align 8, !tbaa !3
  store i8 %39, ptr %40, align 1, !tbaa !10
  %42 = load i8, ptr %9, align 1, !tbaa !10
  %43 = zext i8 %42 to i32
  %44 = and i32 %43, 3
  %45 = shl i32 %44, 4
  %46 = load i8, ptr %10, align 1, !tbaa !10
  %47 = zext i8 %46 to i32
  %48 = ashr i32 %47, 4
  %49 = and i32 %48, 15
  %50 = or i32 %45, %49
  %51 = sext i32 %50 to i64
  %52 = getelementptr inbounds [256 x i8], ptr @_ZL2e1, i64 0, i64 %51
  %53 = load i8, ptr %52, align 1, !tbaa !10
  %54 = load ptr, ptr %8, align 8, !tbaa !3
  %55 = getelementptr inbounds nuw i8, ptr %54, i32 1
  store ptr %55, ptr %8, align 8, !tbaa !3
  store i8 %53, ptr %54, align 1, !tbaa !10
  %56 = load i8, ptr %10, align 1, !tbaa !10
  %57 = zext i8 %56 to i32
  %58 = and i32 %57, 15
  %59 = shl i32 %58, 2
  %60 = load i8, ptr %11, align 1, !tbaa !10
  %61 = zext i8 %60 to i32
  %62 = ashr i32 %61, 6
  %63 = and i32 %62, 3
  %64 = or i32 %59, %63
  %65 = sext i32 %64 to i64
  %66 = getelementptr inbounds [256 x i8], ptr @_ZL2e1, i64 0, i64 %65
  %67 = load i8, ptr %66, align 1, !tbaa !10
  %68 = load ptr, ptr %8, align 8, !tbaa !3
  %69 = getelementptr inbounds nuw i8, ptr %68, i32 1
  store ptr %69, ptr %8, align 8, !tbaa !3
  store i8 %67, ptr %68, align 1, !tbaa !10
  %70 = load i8, ptr %11, align 1, !tbaa !10
  %71 = zext i8 %70 to i64
  %72 = getelementptr inbounds nuw [256 x i8], ptr @_ZL2e2, i64 0, i64 %71
  %73 = load i8, ptr %72, align 1, !tbaa !10
  %74 = load ptr, ptr %8, align 8, !tbaa !3
  %75 = getelementptr inbounds nuw i8, ptr %74, i32 1
  store ptr %75, ptr %8, align 8, !tbaa !3
  store i8 %73, ptr %74, align 1, !tbaa !10
  br label %76

76:                                               ; preds = %21
  %77 = load i64, ptr %7, align 8, !tbaa !8
  %78 = add i64 %77, 3
  store i64 %78, ptr %7, align 8, !tbaa !8
  br label %16, !llvm.loop !11

79:                                               ; preds = %16
  br label %80

80:                                               ; preds = %79, %3
  %81 = load i64, ptr %6, align 8, !tbaa !8
  %82 = load i64, ptr %7, align 8, !tbaa !8
  %83 = sub i64 %81, %82
  switch i64 %83, label %108 [
    i64 0, label %149
    i64 1, label %84
  ]

84:                                               ; preds = %80
  %85 = load ptr, ptr %5, align 8, !tbaa !3
  %86 = load i64, ptr %7, align 8, !tbaa !8
  %87 = getelementptr inbounds nuw i8, ptr %85, i64 %86
  %88 = load i8, ptr %87, align 1, !tbaa !10
  store i8 %88, ptr %9, align 1, !tbaa !10
  %89 = load i8, ptr %9, align 1, !tbaa !10
  %90 = zext i8 %89 to i64
  %91 = getelementptr inbounds nuw [256 x i8], ptr @_ZL2e0, i64 0, i64 %90
  %92 = load i8, ptr %91, align 1, !tbaa !10
  %93 = load ptr, ptr %8, align 8, !tbaa !3
  %94 = getelementptr inbounds nuw i8, ptr %93, i32 1
  store ptr %94, ptr %8, align 8, !tbaa !3
  store i8 %92, ptr %93, align 1, !tbaa !10
  %95 = load i8, ptr %9, align 1, !tbaa !10
  %96 = zext i8 %95 to i32
  %97 = and i32 %96, 3
  %98 = shl i32 %97, 4
  %99 = sext i32 %98 to i64
  %100 = getelementptr inbounds [256 x i8], ptr @_ZL2e1, i64 0, i64 %99
  %101 = load i8, ptr %100, align 1, !tbaa !10
  %102 = load ptr, ptr %8, align 8, !tbaa !3
  %103 = getelementptr inbounds nuw i8, ptr %102, i32 1
  store ptr %103, ptr %8, align 8, !tbaa !3
  store i8 %101, ptr %102, align 1, !tbaa !10
  %104 = load ptr, ptr %8, align 8, !tbaa !3
  %105 = getelementptr inbounds nuw i8, ptr %104, i32 1
  store ptr %105, ptr %8, align 8, !tbaa !3
  store i8 61, ptr %104, align 1, !tbaa !10
  %106 = load ptr, ptr %8, align 8, !tbaa !3
  %107 = getelementptr inbounds nuw i8, ptr %106, i32 1
  store ptr %107, ptr %8, align 8, !tbaa !3
  store i8 61, ptr %106, align 1, !tbaa !10
  br label %149

108:                                              ; preds = %80
  %109 = load ptr, ptr %5, align 8, !tbaa !3
  %110 = load i64, ptr %7, align 8, !tbaa !8
  %111 = getelementptr inbounds nuw i8, ptr %109, i64 %110
  %112 = load i8, ptr %111, align 1, !tbaa !10
  store i8 %112, ptr %9, align 1, !tbaa !10
  %113 = load ptr, ptr %5, align 8, !tbaa !3
  %114 = load i64, ptr %7, align 8, !tbaa !8
  %115 = add i64 %114, 1
  %116 = getelementptr inbounds nuw i8, ptr %113, i64 %115
  %117 = load i8, ptr %116, align 1, !tbaa !10
  store i8 %117, ptr %10, align 1, !tbaa !10
  %118 = load i8, ptr %9, align 1, !tbaa !10
  %119 = zext i8 %118 to i64
  %120 = getelementptr inbounds nuw [256 x i8], ptr @_ZL2e0, i64 0, i64 %119
  %121 = load i8, ptr %120, align 1, !tbaa !10
  %122 = load ptr, ptr %8, align 8, !tbaa !3
  %123 = getelementptr inbounds nuw i8, ptr %122, i32 1
  store ptr %123, ptr %8, align 8, !tbaa !3
  store i8 %121, ptr %122, align 1, !tbaa !10
  %124 = load i8, ptr %9, align 1, !tbaa !10
  %125 = zext i8 %124 to i32
  %126 = and i32 %125, 3
  %127 = shl i32 %126, 4
  %128 = load i8, ptr %10, align 1, !tbaa !10
  %129 = zext i8 %128 to i32
  %130 = ashr i32 %129, 4
  %131 = and i32 %130, 15
  %132 = or i32 %127, %131
  %133 = sext i32 %132 to i64
  %134 = getelementptr inbounds [256 x i8], ptr @_ZL2e1, i64 0, i64 %133
  %135 = load i8, ptr %134, align 1, !tbaa !10
  %136 = load ptr, ptr %8, align 8, !tbaa !3
  %137 = getelementptr inbounds nuw i8, ptr %136, i32 1
  store ptr %137, ptr %8, align 8, !tbaa !3
  store i8 %135, ptr %136, align 1, !tbaa !10
  %138 = load i8, ptr %10, align 1, !tbaa !10
  %139 = zext i8 %138 to i32
  %140 = and i32 %139, 15
  %141 = shl i32 %140, 2
  %142 = sext i32 %141 to i64
  %143 = getelementptr inbounds [256 x i8], ptr @_ZL2e2, i64 0, i64 %142
  %144 = load i8, ptr %143, align 1, !tbaa !10
  %145 = load ptr, ptr %8, align 8, !tbaa !3
  %146 = getelementptr inbounds nuw i8, ptr %145, i32 1
  store ptr %146, ptr %8, align 8, !tbaa !3
  store i8 %144, ptr %145, align 1, !tbaa !10
  %147 = load ptr, ptr %8, align 8, !tbaa !3
  %148 = getelementptr inbounds nuw i8, ptr %147, i32 1
  store ptr %148, ptr %8, align 8, !tbaa !3
  store i8 61, ptr %147, align 1, !tbaa !10
  br label %149

149:                                              ; preds = %108, %84, %80
  %150 = load ptr, ptr %8, align 8, !tbaa !3
  store i8 0, ptr %150, align 1, !tbaa !10
  %151 = load ptr, ptr %8, align 8, !tbaa !3
  %152 = load ptr, ptr %4, align 8, !tbaa !3
  %153 = ptrtoint ptr %151 to i64
  %154 = ptrtoint ptr %152 to i64
  %155 = sub i64 %153, %154
  call void @llvm.lifetime.end.p0(i64 1, ptr %11) #2
  call void @llvm.lifetime.end.p0(i64 1, ptr %10) #2
  call void @llvm.lifetime.end.p0(i64 1, ptr %9) #2
  call void @llvm.lifetime.end.p0(i64 8, ptr %8) #2
  call void @llvm.lifetime.end.p0(i64 8, ptr %7) #2
  ret i64 %155
}