; Function Attrs: mustprogress nofree norecurse nosync nounwind memory(argmem: readwrite) uwtable
define noundef i64 @modp_b64_encode(ptr noundef %0, ptr noundef readonly captures(none) %1, i64 noundef %2) local_unnamed_addr #0 {
  %4 = icmp ugt i64 %2, 2
  br i1 %4, label %.lr.ph.preheader, label %.loopexit

.lr.ph.preheader:                                 ; preds = %3
  %5 = add i64 %2, -2
  br label %.lr.ph

.lr.ph:                                           ; preds = %.lr.ph.preheader, %.lr.ph
  %.148 = phi i64 [ %39, %.lr.ph ], [ 0, %.lr.ph.preheader ]
  %.14647 = phi ptr [ %38, %.lr.ph ], [ %0, %.lr.ph.preheader ]
  %6 = getelementptr inbounds nuw i8, ptr %1, i64 %.148
  %7 = load i8, ptr %6, align 1, !tbaa !3
  %8 = getelementptr i8, ptr %6, i64 1
  %9 = load i8, ptr %8, align 1, !tbaa !3
  %10 = getelementptr i8, ptr %6, i64 2
  %11 = load i8, ptr %10, align 1, !tbaa !3
  %12 = zext i8 %7 to i64
  %13 = getelementptr inbounds nuw [256 x i8], ptr @_ZL2e0, i64 0, i64 %12
  %14 = load i8, ptr %13, align 1, !tbaa !3
  %15 = getelementptr inbounds nuw i8, ptr %.14647, i64 1
  store i8 %14, ptr %.14647, align 1, !tbaa !3
  %16 = shl i8 %7, 4
  %17 = and i8 %16, 48
  %18 = zext nneg i8 %17 to i32
  %19 = zext i8 %9 to i32
  %20 = lshr i32 %19, 4
  %21 = or disjoint i32 %20, %18
  %22 = zext nneg i32 %21 to i64
  %23 = getelementptr inbounds nuw [256 x i8], ptr @_ZL2e2, i64 0, i64 %22
  %24 = load i8, ptr %23, align 1, !tbaa !3
  %25 = getelementptr inbounds nuw i8, ptr %.14647, i64 2
  store i8 %24, ptr %15, align 1, !tbaa !3
  %26 = shl nuw nsw i32 %19, 2
  %27 = and i32 %26, 60
  %28 = lshr i8 %11, 6
  %29 = zext nneg i8 %28 to i32
  %30 = or disjoint i32 %27, %29
  %31 = zext nneg i32 %30 to i64
  %32 = getelementptr inbounds nuw [256 x i8], ptr @_ZL2e2, i64 0, i64 %31
  %33 = load i8, ptr %32, align 1, !tbaa !3
  %34 = getelementptr inbounds nuw i8, ptr %.14647, i64 3
  store i8 %33, ptr %25, align 1, !tbaa !3
  %35 = zext i8 %11 to i64
  %36 = getelementptr inbounds nuw [256 x i8], ptr @_ZL2e2, i64 0, i64 %35
  %37 = load i8, ptr %36, align 1, !tbaa !3
  %38 = getelementptr inbounds nuw i8, ptr %.14647, i64 4
  store i8 %37, ptr %34, align 1, !tbaa !3
  %39 = add i64 %.148, 3
  %40 = icmp ult i64 %39, %5
  br i1 %40, label %.lr.ph, label %.loopexit, !llvm.loop !6

.loopexit:                                        ; preds = %.lr.ph, %3
  %.045 = phi ptr [ %0, %3 ], [ %38, %.lr.ph ]
  %.0 = phi i64 [ 0, %3 ], [ %39, %.lr.ph ]
  %41 = sub i64 %2, %.0
  switch i64 %41, label %57 [
    i64 0, label %83
    i64 1, label %42
  ]

42:                                               ; preds = %.loopexit
  %43 = getelementptr inbounds nuw i8, ptr %1, i64 %.0
  %44 = load i8, ptr %43, align 1, !tbaa !3
  %45 = zext i8 %44 to i64
  %46 = getelementptr inbounds nuw [256 x i8], ptr @_ZL2e0, i64 0, i64 %45
  %47 = load i8, ptr %46, align 1, !tbaa !3
  %48 = getelementptr inbounds nuw i8, ptr %.045, i64 1
  store i8 %47, ptr %.045, align 1, !tbaa !3
  %49 = shl i8 %44, 4
  %50 = and i8 %49, 48
  %51 = zext nneg i8 %50 to i64
  %52 = getelementptr inbounds nuw [256 x i8], ptr @_ZL2e2, i64 0, i64 %51
  %53 = load i8, ptr %52, align 16, !tbaa !3
  %54 = getelementptr inbounds nuw i8, ptr %.045, i64 2
  store i8 %53, ptr %48, align 1, !tbaa !3
  %55 = getelementptr inbounds nuw i8, ptr %.045, i64 3
  store i8 61, ptr %54, align 1, !tbaa !3
  %56 = getelementptr inbounds nuw i8, ptr %.045, i64 4
  store i8 61, ptr %55, align 1, !tbaa !3
  br label %83

57:                                               ; preds = %.loopexit
  %58 = getelementptr inbounds nuw i8, ptr %1, i64 %.0
  %59 = load i8, ptr %58, align 1, !tbaa !3
  %60 = getelementptr i8, ptr %58, i64 1
  %61 = load i8, ptr %60, align 1, !tbaa !3
  %62 = zext i8 %59 to i64
  %63 = getelementptr inbounds nuw [256 x i8], ptr @_ZL2e0, i64 0, i64 %62
  %64 = load i8, ptr %63, align 1, !tbaa !3
  %65 = getelementptr inbounds nuw i8, ptr %.045, i64 1
  store i8 %64, ptr %.045, align 1, !tbaa !3
  %66 = shl i8 %59, 4
  %67 = and i8 %66, 48
  %68 = zext nneg i8 %67 to i32
  %69 = zext i8 %61 to i32
  %70 = lshr i32 %69, 4
  %71 = or disjoint i32 %70, %68
  %72 = zext nneg i32 %71 to i64
  %73 = getelementptr inbounds nuw [256 x i8], ptr @_ZL2e2, i64 0, i64 %72
  %74 = load i8, ptr %73, align 1, !tbaa !3
  %75 = getelementptr inbounds nuw i8, ptr %.045, i64 2
  store i8 %74, ptr %65, align 1, !tbaa !3
  %76 = shl nuw nsw i32 %69, 2
  %77 = and i32 %76, 60
  %78 = zext nneg i32 %77 to i64
  %79 = getelementptr inbounds nuw [256 x i8], ptr @_ZL2e2, i64 0, i64 %78
  %80 = load i8, ptr %79, align 4, !tbaa !3
  %81 = getelementptr inbounds nuw i8, ptr %.045, i64 3
  store i8 %80, ptr %75, align 1, !tbaa !3
  %82 = getelementptr inbounds nuw i8, ptr %.045, i64 4
  store i8 61, ptr %81, align 1, !tbaa !3
  br label %83

83:                                               ; preds = %57, %42, %.loopexit
  %.2 = phi ptr [ %82, %57 ], [ %56, %42 ], [ %.045, %.loopexit ]
  store i8 0, ptr %.2, align 1, !tbaa !3
  %84 = ptrtoint ptr %.2 to i64
  %85 = ptrtoint ptr %0 to i64
  %86 = sub i64 %84, %85
  ret i64 %86
}